; Function Attrs: inlinehint mustprogress nounwind uwtable
define internal fastcc void @_ZSt8_DestroyIPN3gmx15analysismodules12_GLOBAL__N_116DsspStorageFrameEEvT_S5_(ptr noundef readonly %0, ptr noundef readnone %1) unnamed_addr #7 personality ptr @__gxx_personality_v0 {
  %.not4.i = icmp eq ptr %0, %1
  br i1 %.not4.i, label %_ZNSt12_Destroy_auxILb0EE9__destroyIPN3gmx15analysismodules12_GLOBAL__N_116DsspStorageFrameEEEvT_S7_.exit, label %.lr.ph.i

.lr.ph.i:                                         ; preds = %2, %_ZSt8_DestroyIN3gmx15analysismodules12_GLOBAL__N_116DsspStorageFrameEEvPT_.exit.i
  %.05.i = phi ptr [ %12, %_ZSt8_DestroyIN3gmx15analysismodules12_GLOBAL__N_116DsspStorageFrameEEvPT_.exit.i ], [ %0, %2 ]
  %3 = getelementptr inbounds nuw i8, ptr %.05.i, i64 8
  %4 = load ptr, ptr %3, align 8, !tbaa !76
  %5 = getelementptr inbounds nuw i8, ptr %.05.i, i64 24
  %6 = icmp eq ptr %4, %5
  br i1 %6, label %_ZNKSt7__cxx1112basic_stringIcSt11char_traitsIcESaIcEE11_M_is_localEv.exit.thread.i.i.i.i.i, label %_ZNKSt7__cxx1112basic_stringIcSt11char_traitsIcESaIcEE11_M_is_localEv.exit.i.i.i.i.i

_ZNKSt7__cxx1112basic_stringIcSt11char_traitsIcESaIcEE11_M_is_localEv.exit.thread.i.i.i.i.i: ; preds = %.lr.ph.i
  %7 = getelementptr inbounds nuw i8, ptr %.05.i, i64 16
  %8 = load i64, ptr %7, align 8, !tbaa !69
  %9 = icmp ult i64 %8, 16
  tail call void @llvm.assume(i1 %9)
  br label %_ZSt8_DestroyIN3gmx15analysismodules12_GLOBAL__N_116DsspStorageFrameEEvPT_.exit.i

_ZNKSt7__cxx1112basic_stringIcSt11char_traitsIcESaIcEE11_M_is_localEv.exit.i.i.i.i.i: ; preds = %.lr.ph.i
  %10 = load i64, ptr %5, align 8, !tbaa !70
  %11 = add i64 %10, 1
  tail call void @_ZdlPvm(ptr noundef %4, i64 noundef %11) #32
  br label %_ZSt8_DestroyIN3gmx15analysismodules12_GLOBAL__N_116DsspStorageFrameEEvPT_.exit.i

_ZSt8_DestroyIN3gmx15analysismodules12_GLOBAL__N_116DsspStorageFrameEEvPT_.exit.i: ; preds = %_ZNKSt7__cxx1112basic_stringIcSt11char_traitsIcESaIcEE11_M_is_localEv.exit.i.i.i.i.i, %_ZNKSt7__cxx1112basic_stringIcSt11char_traitsIcESaIcEE11_M_is_localEv.exit.thread.i.i.i.i.i
  %12 = getelementptr inbounds nuw i8, ptr %.05.i, i64 40
  %.not.i = icmp eq ptr %12, %1
  br i1 %.not.i, label %_ZNSt12_Destroy_auxILb0EE9__destroyIPN3gmx15analysismodules12_GLOBAL__N_116DsspStorageFrameEEEvT_S7_.exit, label %.lr.ph.i, !llvm.loop !82

_ZNSt12_Destroy_auxILb0EE9__destroyIPN3gmx15analysismodules12_GLOBAL__N_116DsspStorageFrameEEEvT_S7_.exit: ; preds = %_ZSt8_DestroyIN3gmx15analysismodules12_GLOBAL__N_116DsspStorageFrameEEvPT_.exit.i, %2
  ret void
}